; Function Attrs: nounwind uwtable
define ptr @l_Lean_PersistentArray_findSomeRevMAux___at_Lean_resolveLocalName___spec__8___boxed(ptr noundef %0, ptr noundef %1) local_unnamed_addr #1 {
  %3 = ptrtoint ptr %1 to i64
  %4 = and i64 %3, 1
  %.not.i.i = icmp eq i64 %4, 0
  br i1 %.not.i.i, label %8, label %5

5:                                                ; preds = %2
  %6 = lshr i64 %3, 1
  %7 = trunc i64 %6 to i32
  br label %lean_obj_tag.exit.i

8:                                                ; preds = %2
  %9 = getelementptr i8, ptr %1, i64 4
  %.val.i.i = load i32, ptr %9, align 4
  %10 = lshr i32 %.val.i.i, 24
  br label %lean_obj_tag.exit.i

lean_obj_tag.exit.i:                              ; preds = %8, %5
  %.0.i.i = phi i32 [ %7, %5 ], [ %10, %8 ]
  %11 = icmp eq i32 %.0.i.i, 0
  %12 = getelementptr inbounds nuw i8, ptr %1, i64 8
  %13 = load ptr, ptr %12, align 8, !tbaa !9
  %14 = getelementptr i8, ptr %13, i64 8
  %.val14.i = load i64, ptr %14, align 8, !tbaa !12
  %15 = shl i64 %.val14.i, 1
  %16 = or disjoint i64 %15, 1
  %17 = inttoptr i64 %16 to ptr
  br i1 %11, label %18, label %20

18:                                               ; preds = %lean_obj_tag.exit.i
  %19 = tail call ptr @l_Array_findSomeRevM_x3f_find___at_Lean_resolveLocalName___spec__9(ptr noundef %0, ptr noundef nonnull %13, ptr noundef nonnull %17, ptr nonnull poison) #8
  br label %l_Lean_PersistentArray_findSomeRevMAux___at_Lean_resolveLocalName___spec__8.exit

20:                                               ; preds = %lean_obj_tag.exit.i
  %21 = tail call ptr @l_Array_findSomeRevM_x3f_find___at_Lean_resolveLocalName___spec__10(ptr noundef %0, ptr noundef nonnull %13, ptr noundef nonnull %17, ptr nonnull poison)
  br label %l_Lean_PersistentArray_findSomeRevMAux___at_Lean_resolveLocalName___spec__8.exit

l_Lean_PersistentArray_findSomeRevMAux___at_Lean_resolveLocalName___spec__8.exit: ; preds = %18, %20
  %.0.i = phi ptr [ %19, %18 ], [ %21, %20 ]
  br i1 %.not.i.i, label %22, label %lean_dec.exit5

22:                                               ; preds = %l_Lean_PersistentArray_findSomeRevMAux___at_Lean_resolveLocalName___spec__8.exit
  %23 = load i32, ptr %1, align 4, !tbaa !4
  %24 = icmp sgt i32 %23, 1
  br i1 %24, label %25, label %27, !prof !11

25:                                               ; preds = %22
  %26 = add nsw i32 %23, -1
  store i32 %26, ptr %1, align 4, !tbaa !4
  br label %lean_dec.exit5

27:                                               ; preds = %22
  %.not.i = icmp eq i32 %23, 0
  br i1 %.not.i, label %lean_dec.exit5, label %28

28:                                               ; preds = %27
  tail call void @lean_dec_ref_cold(ptr noundef nonnull %1) #6
  br label %lean_dec.exit5

lean_dec.exit5:                                   ; preds = %28, %27, %25, %l_Lean_PersistentArray_findSomeRevMAux___at_Lean_resolveLocalName___spec__8.exit
  %29 = ptrtoint ptr %0 to i64
  %30 = and i64 %29, 1
  %.not8 = icmp eq i64 %30, 0
  br i1 %.not8, label %31, label %lean_dec.exit

31:                                               ; preds = %lean_dec.exit5
  %32 = load i32, ptr %0, align 4, !tbaa !4
  %33 = icmp sgt i32 %32, 1
  br i1 %33, label %34, label %36, !prof !11

34:                                               ; preds = %31
  %35 = add nsw i32 %32, -1
  store i32 %35, ptr %0, align 4, !tbaa !4
  br label %lean_dec.exit

36:                                               ; preds = %31
  %.not.i6 = icmp eq i32 %32, 0
  br i1 %.not.i6, label %lean_dec.exit, label %37

37:                                               ; preds = %36
  tail call void @lean_dec_ref_cold(ptr noundef nonnull %0) #6
  br label %lean_dec.exit

lean_dec.exit:                                    ; preds = %37, %36, %34, %lean_dec.exit5
  ret ptr %.0.i
}